; Function Attrs: nounwind uwtable
define internal range(i32 0, 2) i32 @test_bf_cfb64() #1 {
  %1 = alloca [40 x i8], align 16
  %2 = alloca [40 x i8], align 16
  %3 = alloca [8 x i8], align 8
  %4 = alloca i32, align 4
  %5 = alloca %struct.bf_key_st, align 4
  call void @llvm.lifetime.start.p0(i64 40, ptr nonnull %1) #8
  call void @llvm.lifetime.start.p0(i64 40, ptr nonnull %2) #8
  call void @llvm.lifetime.start.p0(i64 8, ptr nonnull %3) #8
  call void @llvm.lifetime.start.p0(i64 4, ptr nonnull %4) #8
  call void @llvm.lifetime.start.p0(i64 4168, ptr nonnull %5) #8
  %6 = tail call i64 @strlen(ptr noundef nonnull dereferenceable(1) @cbc_data) #9
  call void @BF_set_key(ptr noundef nonnull %5, i32 noundef 16, ptr noundef nonnull @cbc_key) #8
  call void @llvm.memset.p0.i64(ptr noundef nonnull align 16 dereferenceable(40) %1, i8 0, i64 40, i1 false)
  call void @llvm.memset.p0.i64(ptr noundef nonnull align 16 dereferenceable(40) %2, i8 0, i64 40, i1 false)
  store i64 1167088121787636990, ptr %3, align 8
  store i32 0, ptr %4, align 4, !tbaa !23
  call void @BF_cfb64_encrypt(ptr noundef nonnull @cbc_data, ptr noundef nonnull %2, i64 noundef 13, ptr noundef nonnull %5, ptr noundef nonnull %3, ptr noundef nonnull %4, i32 noundef 1) #8
  %7 = getelementptr inbounds nuw i8, ptr %2, i64 13
  %8 = add i64 %6, 4294967284
  %9 = and i64 %8, 4294967295
  call void @BF_cfb64_encrypt(ptr noundef nonnull getelementptr inbounds nuw (i8, ptr @cbc_data, i64 13), ptr noundef nonnull %7, i64 noundef %9, ptr noundef nonnull %5, ptr noundef nonnull %3, ptr noundef nonnull %4, i32 noundef 1) #8
  %10 = shl i64 %6, 32
  %sext = add i64 %10, 4294967296
  %11 = ashr exact i64 %sext, 32
  %12 = call i32 @test_mem_eq(ptr noundef nonnull @.str.40, i32 noundef 394, ptr noundef nonnull @.str.48, ptr noundef nonnull @.str.52, ptr noundef nonnull %2, i64 noundef %11, ptr noundef nonnull @cfb64_ok, i64 noundef %11) #8
  %.not = icmp ne i32 %12, 0
  store i32 0, ptr %4, align 4, !tbaa !23
  store i64 1167088121787636990, ptr %3, align 8
  call void @BF_cfb64_encrypt(ptr noundef nonnull %2, ptr noundef nonnull %1, i64 noundef 17, ptr noundef nonnull %5, ptr noundef nonnull %3, ptr noundef nonnull %4, i32 noundef 0) #8
  %13 = getelementptr inbounds nuw i8, ptr %2, i64 17
  %14 = getelementptr inbounds nuw i8, ptr %1, i64 17
  %15 = add i64 %6, 4294967280
  %16 = and i64 %15, 4294967295
  call void @BF_cfb64_encrypt(ptr noundef nonnull %13, ptr noundef nonnull %14, i64 noundef %16, ptr noundef nonnull %5, ptr noundef nonnull %3, ptr noundef nonnull %4, i32 noundef 0) #8
  %17 = call i32 @test_mem_eq(ptr noundef nonnull @.str.40, i32 noundef 402, ptr noundef nonnull @.str.50, ptr noundef nonnull @.str.51, ptr noundef nonnull %1, i64 noundef %11, ptr noundef nonnull @cbc_data, i64 noundef %11) #8
  %.not7 = icmp ne i32 %17, 0
  %narrow = select i1 %.not7, i1 %.not, i1 false
  %.1 = zext i1 %narrow to i32
  call void @llvm.lifetime.end.p0(i64 4168, ptr nonnull %5) #8
  call void @llvm.lifetime.end.p0(i64 4, ptr nonnull %4) #8
  call void @llvm.lifetime.end.p0(i64 8, ptr nonnull %3) #8
  call void @llvm.lifetime.end.p0(i64 40, ptr nonnull %2) #8
  call void @llvm.lifetime.end.p0(i64 40, ptr nonnull %1) #8
  ret i32 %.1
}